target datalayout = "e-m:e-p270:32:32-p271:32:32-p272:64:64-i64:64-i128:128-f80:128-n8:16:32:64-S128"
target triple = "x86_64-pc-linux-gnu"

%struct._generic_SUNNonlinearSolver_Ops = type { ptr, ptr, ptr, ptr, ptr, ptr, ptr, ptr, ptr, ptr, ptr, ptr, ptr }
%struct._generic_SUNNonlinearSolver = type { ptr, ptr, ptr }

; Function Attrs: nounwind uwtable
define i32 @SUNNonlinSolGetNumConvFails(ptr noundef %0, ptr noundef %1) #0 {
  %3 = alloca i32, align 4
  %4 = alloca ptr, align 8
  %5 = alloca ptr, align 8
  store ptr %0, ptr %4, align 8, !tbaa !8
  store ptr %1, ptr %5, align 8, !tbaa !37
  %6 = load ptr, ptr %4, align 8, !tbaa !8
  %7 = getelementptr inbounds nuw %struct._generic_SUNNonlinearSolver, ptr %6, i32 0, i32 1
  %8 = load ptr, ptr %7, align 8, !tbaa !28
  %9 = getelementptr inbounds nuw %struct._generic_SUNNonlinearSolver_Ops, ptr %8, i32 0, i32 12
  %10 = load ptr, ptr %9, align 8, !tbaa !25
  %11 = icmp ne ptr %10, null
  br i1 %11, label %12, label %21

12:                                               ; preds = %2
  %13 = load ptr, ptr %4, align 8, !tbaa !8
  %14 = getelementptr inbounds nuw %struct._generic_SUNNonlinearSolver, ptr %13, i32 0, i32 1
  %15 = load ptr, ptr %14, align 8, !tbaa !28
  %16 = getelementptr inbounds nuw %struct._generic_SUNNonlinearSolver_Ops, ptr %15, i32 0, i32 12
  %17 = load ptr, ptr %16, align 8, !tbaa !25
  %18 = load ptr, ptr %4, align 8, !tbaa !8
  %19 = load ptr, ptr %5, align 8, !tbaa !37
  %20 = call i32 %17(ptr noundef %18, ptr noundef %19)
  store i32 %20, ptr %3, align 4
  br label %23

21:                                               ; preds = %2
  %22 = load ptr, ptr %5, align 8, !tbaa !37
  store i64 0, ptr %22, align 8, !tbaa !39
  store i32 0, ptr %3, align 4
  br label %23

23:                                               ; preds = %21, %12
  %24 = load i32, ptr %3, align 4
  ret i32 %24
}