; Function Attrs: nounwind uwtable
define i32 @SUNNonlinSolGetNumConvFails(ptr noundef %0, ptr noundef %1) local_unnamed_addr #4 {
  %3 = getelementptr inbounds nuw i8, ptr %0, i64 8
  %4 = load ptr, ptr %3, align 8, !tbaa !10
  %5 = getelementptr inbounds nuw i8, ptr %4, i64 96
  %6 = load ptr, ptr %5, align 8, !tbaa !29
  %.not = icmp eq ptr %6, null
  br i1 %.not, label %9, label %7

7:                                                ; preds = %2
  %8 = tail call i32 %6(ptr noundef nonnull %0, ptr noundef %1) #7
  br label %10

9:                                                ; preds = %2
  store i64 0, ptr %1, align 8, !tbaa !24
  br label %10

10:                                               ; preds = %9, %7
  %.0 = phi i32 [ %8, %7 ], [ 0, %9 ]
  ret i32 %.0
}